target datalayout = "e-m:e-p270:32:32-p271:32:32-p272:64:64-i64:64-i128:128-f80:128-n8:16:32:64-S128"
target triple = "x86_64-pc-linux-gnu"

%struct.exr_attr_box2i_t = type { %struct.exr_attr_v2i_t, %struct.exr_attr_v2i_t }
%struct.exr_attr_v2i_t = type { i32, i32 }
%struct._priv_exr_part_t = type { i32, i32, %struct.exr_attribute_list, ptr, ptr, ptr, ptr, ptr, ptr, ptr, ptr, ptr, ptr, ptr, ptr, ptr, ptr, %struct.exr_attr_box2i_t, %struct.exr_attr_box2i_t, i32, i32, i32, float, i32, i32, ptr, ptr, ptr, ptr, i64, i16, i16, i32, i64, i64 }
%struct.exr_attribute_list = type { i32, i32, ptr, ptr }
%struct._priv_exr_context_t = type { i8, i8, i8, i8, i8, i8, i8, i8, %struct.exr_attr_string_t, %struct.exr_attr_string_t, ptr, ptr, ptr, ptr, ptr, ptr, ptr, ptr, i32, i32, i32, i32, i32, float, ptr, ptr, ptr, i64, ptr, ptr, i64, i32, i32, i32, i32, %struct._priv_exr_part_t, ptr, ptr, %struct.exr_attribute_list, %union.pthread_mutex_t, i8, i8, [2 x i8], i32 }
%struct.exr_attr_string_t = type { i32, i32, ptr }
%union.pthread_mutex_t = type { %struct.__pthread_mutex_s }
%struct.__pthread_mutex_s = type { i32, i32, i32, i32, i32, i16, i16, %struct.__pthread_internal_list }
%struct.__pthread_internal_list = type { ptr, ptr }
%struct._internal_exr_seq_scratch = type { ptr, i64, i64, i64, ptr, ptr, ptr }

@.str.88 = private unnamed_addr constant [28 x i8] c"Unable to read '%s' %s data\00", align 1
@.str.90 = private unnamed_addr constant [50 x i8] c"Attribute '%s': Invalid size %d (exp '%s' size 1)\00", align 1
@.str.91 = private unnamed_addr constant [62 x i8] c"Attribute '%s' (type '%s'): Invalid value %d (max allowed %d)\00", align 1

; Function Attrs: nounwind uwtable
define internal i32 @extract_attr_uint8(ptr noundef %0, ptr noundef %1, ptr noundef %2, ptr noundef %3, ptr noundef %4, i32 noundef %5, i8 noundef zeroext %6) #0 {
  %8 = alloca i32, align 4
  %9 = alloca ptr, align 8
  %10 = alloca ptr, align 8
  %11 = alloca ptr, align 8
  %12 = alloca ptr, align 8
  %13 = alloca ptr, align 8
  %14 = alloca i32, align 4
  %15 = alloca i8, align 1
  store ptr %0, ptr %9, align 8, !tbaa !3
  store ptr %1, ptr %10, align 8, !tbaa !95
  store ptr %2, ptr %11, align 8, !tbaa !93
  store ptr %3, ptr %12, align 8, !tbaa !93
  store ptr %4, ptr %13, align 8, !tbaa !93
  store i32 %5, ptr %14, align 4, !tbaa !10
  store i8 %6, ptr %15, align 1, !tbaa !33
  %16 = load i32, ptr %14, align 4, !tbaa !10
  %17 = icmp ne i32 %16, 1
  br i1 %17, label %18, label %27

18:                                               ; preds = %7
  %19 = load ptr, ptr %9, align 8, !tbaa !3
  %20 = getelementptr inbounds nuw %struct._priv_exr_context_t, ptr %19, i32 0, i32 14
  %21 = load ptr, ptr %20, align 8, !tbaa !48
  %22 = load ptr, ptr %9, align 8, !tbaa !3
  %23 = load ptr, ptr %12, align 8, !tbaa !93
  %24 = load i32, ptr %14, align 4, !tbaa !10
  %25 = load ptr, ptr %13, align 8, !tbaa !93
  %26 = call i32 (ptr, i32, ptr, ...) %21(ptr noundef %22, i32 noundef 17, ptr noundef @.str.90, ptr noundef %23, i32 noundef %24, ptr noundef %25)
  store i32 %26, ptr %8, align 4
  br label %64

27:                                               ; preds = %7
  %28 = load ptr, ptr %10, align 8, !tbaa !95
  %29 = getelementptr inbounds nuw %struct._internal_exr_seq_scratch, ptr %28, i32 0, i32 4
  %30 = load ptr, ptr %29, align 8, !tbaa !88
  %31 = load ptr, ptr %10, align 8, !tbaa !95
  %32 = load ptr, ptr %11, align 8, !tbaa !93
  %33 = call i32 %30(ptr noundef %31, ptr noundef %32, i64 noundef 1)
  %34 = icmp ne i32 %33, 0
  br i1 %34, label %35, label %43

35:                                               ; preds = %27
  %36 = load ptr, ptr %9, align 8, !tbaa !3
  %37 = getelementptr inbounds nuw %struct._priv_exr_context_t, ptr %36, i32 0, i32 14
  %38 = load ptr, ptr %37, align 8, !tbaa !48
  %39 = load ptr, ptr %9, align 8, !tbaa !3
  %40 = load ptr, ptr %12, align 8, !tbaa !93
  %41 = load ptr, ptr %13, align 8, !tbaa !93
  %42 = call i32 (ptr, i32, ptr, ...) %38(ptr noundef %39, i32 noundef 10, ptr noundef @.str.88, ptr noundef %40, ptr noundef %41)
  store i32 %42, ptr %8, align 4
  br label %64

43:                                               ; preds = %27
  %44 = load ptr, ptr %11, align 8, !tbaa !93
  %45 = load i8, ptr %44, align 1, !tbaa !33
  %46 = zext i8 %45 to i32
  %47 = load i8, ptr %15, align 1, !tbaa !33
  %48 = zext i8 %47 to i32
  %49 = icmp sge i32 %46, %48
  br i1 %49, label %50, label %63

50:                                               ; preds = %43
  %51 = load ptr, ptr %9, align 8, !tbaa !3
  %52 = getelementptr inbounds nuw %struct._priv_exr_context_t, ptr %51, i32 0, i32 14
  %53 = load ptr, ptr %52, align 8, !tbaa !48
  %54 = load ptr, ptr %9, align 8, !tbaa !3
  %55 = load ptr, ptr %12, align 8, !tbaa !93
  %56 = load ptr, ptr %13, align 8, !tbaa !93
  %57 = load ptr, ptr %11, align 8, !tbaa !93
  %58 = load i8, ptr %57, align 1, !tbaa !33
  %59 = zext i8 %58 to i32
  %60 = load i8, ptr %15, align 1, !tbaa !33
  %61 = zext i8 %60 to i32
  %62 = call i32 (ptr, i32, ptr, ...) %53(ptr noundef %54, i32 noundef 14, ptr noundef @.str.91, ptr noundef %55, ptr noundef %56, i32 noundef %59, i32 noundef %61)
  store i32 %62, ptr %8, align 4
  br label %64

63:                                               ; preds = %43
  store i32 0, ptr %8, align 4
  br label %64

64:                                               ; preds = %63, %50, %35, %18
  %65 = load i32, ptr %8, align 4
  ret i32 %65
}