; Function Attrs: nounwind uwtable
define internal fastcc i32 @extract_attr_uint8(ptr noundef %0, ptr noundef nonnull %1, ptr noundef %2, ptr noundef %3, ptr noundef nonnull %4, i32 noundef %5, i8 noundef zeroext range(i8 2, 11) %6) unnamed_addr #0 {
  %.not = icmp eq i32 %5, 1
  br i1 %.not, label %12, label %8

8:                                                ; preds = %7
  %9 = getelementptr inbounds nuw i8, ptr %0, i64 72
  %10 = load ptr, ptr %9, align 8, !tbaa !40
  %11 = tail call i32 (ptr, i32, ptr, ...) %10(ptr noundef %0, i32 noundef 17, ptr noundef nonnull @.str.90, ptr noundef %3, i32 noundef %5, ptr noundef nonnull %4) #9
  br label %28

12:                                               ; preds = %7
  %13 = getelementptr inbounds nuw i8, ptr %1, i64 32
  %14 = load ptr, ptr %13, align 8, !tbaa !73
  %15 = tail call i32 %14(ptr noundef nonnull %1, ptr noundef %2, i64 noundef 1) #9
  %.not24 = icmp eq i32 %15, 0
  br i1 %.not24, label %20, label %16

16:                                               ; preds = %12
  %17 = getelementptr inbounds nuw i8, ptr %0, i64 72
  %18 = load ptr, ptr %17, align 8, !tbaa !40
  %19 = tail call i32 (ptr, i32, ptr, ...) %18(ptr noundef %0, i32 noundef 10, ptr noundef nonnull @.str.88, ptr noundef %3, ptr noundef nonnull %4) #9
  br label %28

20:                                               ; preds = %12
  %21 = load i8, ptr %2, align 1, !tbaa !29
  %.not25 = icmp ult i8 %21, %6
  br i1 %.not25, label %28, label %22

22:                                               ; preds = %20
  %23 = zext nneg i8 %6 to i32
  %24 = zext i8 %21 to i32
  %25 = getelementptr inbounds nuw i8, ptr %0, i64 72
  %26 = load ptr, ptr %25, align 8, !tbaa !40
  %27 = tail call i32 (ptr, i32, ptr, ...) %26(ptr noundef %0, i32 noundef 14, ptr noundef nonnull @.str.91, ptr noundef %3, ptr noundef nonnull %4, i32 noundef %24, i32 noundef %23) #9
  br label %28

28:                                               ; preds = %20, %22, %16, %8
  %.0 = phi i32 [ %11, %8 ], [ %19, %16 ], [ %27, %22 ], [ 0, %20 ]
  ret i32 %.0
}